; Function Attrs: mustprogress nounwind uwtable
define hidden void @_ZN21G1AdaptiveIHOPControl16send_trace_eventEP11G1NewTracer(ptr noundef nonnull align 8 dereferenceable(216) %0, ptr noundef %1) unnamed_addr #1 align 2 {
  %3 = load ptr, ptr %0, align 8
  %4 = getelementptr inbounds i8, ptr %3, i64 24
  %5 = load ptr, ptr %4, align 8
  %6 = tail call noundef i64 %5(ptr noundef nonnull align 8 dereferenceable(40) %0) #14
  %7 = getelementptr inbounds i8, ptr %0, i64 16
  %8 = load i64, ptr %7, align 8
  %9 = load ptr, ptr @_ZN8Universe14_collectedHeapE, align 8
  %10 = load ptr, ptr %9, align 8
  %11 = getelementptr inbounds i8, ptr %10, i64 96
  %12 = load ptr, ptr %11, align 8
  %13 = tail call noundef i64 %12(ptr noundef nonnull align 8 dereferenceable(1488) %9) #14
  %14 = getelementptr inbounds i8, ptr %0, i64 32
  %15 = load ptr, ptr %14, align 8
  %16 = load i64, ptr %15, align 8
  %17 = getelementptr inbounds i8, ptr %0, i64 24
  %18 = load double, ptr %17, align 8
  %19 = load ptr, ptr %0, align 8
  %20 = load ptr, ptr %19, align 8
  %21 = tail call noundef double %20(ptr noundef nonnull align 8 dereferenceable(40) %0) #14
  tail call void @_ZN11G1NewTracer28report_basic_ihop_statisticsEmmmmdd(ptr noundef nonnull align 8 dereferenceable(88) %1, i64 noundef %6, i64 noundef %8, i64 noundef %13, i64 noundef %16, double noundef %18, double noundef %21) #14
  %22 = load ptr, ptr %0, align 8
  %23 = getelementptr inbounds i8, ptr %22, i64 24
  %24 = load ptr, ptr %23, align 8
  %25 = tail call noundef i64 %24(ptr noundef nonnull align 8 dereferenceable(216) %0) #14
  %26 = load i64, ptr %7, align 8
  %.not.i = icmp eq i64 %26, 0
  br i1 %.not.i, label %27, label %_ZNK21G1AdaptiveIHOPControl23actual_target_thresholdEv.exit

27:                                               ; preds = %2
  %28 = load ptr, ptr @g_assert_poison, align 8
  store i8 88, ptr %28, align 1
  tail call void (ptr, i32, ptr, ptr, ...) @_Z15report_vm_errorPKciS0_S0_z(ptr noundef nonnull @.str.5, i32 noundef 101, ptr noundef nonnull @.str.6, ptr noundef nonnull @.str.7) #15
  unreachable

_ZNK21G1AdaptiveIHOPControl23actual_target_thresholdEv.exit: ; preds = %2
  %29 = getelementptr inbounds i8, ptr %0, i64 40
  %30 = load i64, ptr %29, align 8
  %31 = getelementptr inbounds i8, ptr %0, i64 48
  %32 = load i64, ptr %31, align 8
  %33 = load ptr, ptr @_ZN8Universe14_collectedHeapE, align 8
  %34 = load ptr, ptr %33, align 8
  %35 = getelementptr inbounds i8, ptr %34, i64 120
  %36 = load ptr, ptr %35, align 8
  %37 = tail call noundef i64 %36(ptr noundef nonnull align 8 dereferenceable(1488) %33) #14
  %38 = load i64, ptr %7, align 8
  %39 = load i64, ptr %31, align 8
  %40 = load ptr, ptr @_ZN8Universe14_collectedHeapE, align 8
  %41 = load ptr, ptr %40, align 8
  %42 = getelementptr inbounds i8, ptr %41, i64 96
  %43 = load ptr, ptr %42, align 8
  %44 = tail call noundef i64 %43(ptr noundef nonnull align 8 dereferenceable(1488) %40) #14
  %45 = getelementptr inbounds i8, ptr %0, i64 208
  %46 = load i64, ptr %45, align 8
  %47 = getelementptr inbounds i8, ptr %0, i64 136
  %48 = getelementptr inbounds i8, ptr %0, i64 56
  %49 = load ptr, ptr %48, align 8
  %50 = tail call noundef double @_ZNK6AbsSeq4davgEv(ptr noundef nonnull align 8 dereferenceable(56) %47) #14
  %51 = load double, ptr %49, align 8
  %52 = tail call noundef double @_ZNK6AbsSeq3dsdEv(ptr noundef nonnull align 8 dereferenceable(56) %47) #14
  %53 = getelementptr inbounds i8, ptr %0, i64 144
  %54 = load i32, ptr %53, align 8
  %55 = icmp slt i32 %54, 5
  br i1 %55, label %56, label %_ZNK21G1AdaptiveIHOPControl7predictEPK12TruncatedSeq.exit

56:                                               ; preds = %_ZNK21G1AdaptiveIHOPControl23actual_target_thresholdEv.exit
  %57 = tail call noundef double @_ZNK6AbsSeq4davgEv(ptr noundef nonnull align 8 dereferenceable(56) %47) #14
  %58 = sub nsw i32 5, %54
  %59 = uitofp nneg i32 %58 to double
  %60 = fmul double %57, %59
  %61 = fmul double %60, 5.000000e-01
  %62 = fcmp ogt double %61, %52
  %63 = select i1 %62, double %61, double %52
  br label %_ZNK21G1AdaptiveIHOPControl7predictEPK12TruncatedSeq.exit

_ZNK21G1AdaptiveIHOPControl7predictEPK12TruncatedSeq.exit: ; preds = %_ZNK21G1AdaptiveIHOPControl23actual_target_thresholdEv.exit, %56
  %.0.i.i.i.i = phi double [ %63, %56 ], [ %52, %_ZNK21G1AdaptiveIHOPControl23actual_target_thresholdEv.exit ]
  %64 = getelementptr inbounds i8, ptr %0, i64 64
  %65 = load ptr, ptr %48, align 8
  %66 = tail call noundef double @_ZNK6AbsSeq4davgEv(ptr noundef nonnull align 8 dereferenceable(56) %64) #14
  %67 = load double, ptr %65, align 8
  %68 = tail call noundef double @_ZNK6AbsSeq3dsdEv(ptr noundef nonnull align 8 dereferenceable(56) %64) #14
  %69 = getelementptr inbounds i8, ptr %0, i64 72
  %70 = load i32, ptr %69, align 8
  %71 = icmp slt i32 %70, 5
  br i1 %71, label %72, label %_ZNK21G1AdaptiveIHOPControl7predictEPK12TruncatedSeq.exit4

72:                                               ; preds = %_ZNK21G1AdaptiveIHOPControl7predictEPK12TruncatedSeq.exit
  %73 = tail call noundef double @_ZNK6AbsSeq4davgEv(ptr noundef nonnull align 8 dereferenceable(56) %64) #14
  %74 = sub nsw i32 5, %70
  %75 = uitofp nneg i32 %74 to double
  %76 = fmul double %73, %75
  %77 = fmul double %76, 5.000000e-01
  %78 = fcmp ogt double %77, %68
  %79 = select i1 %78, double %77, double %68
  %.pre = load i32, ptr %69, align 8
  br label %_ZNK21G1AdaptiveIHOPControl7predictEPK12TruncatedSeq.exit4

_ZNK21G1AdaptiveIHOPControl7predictEPK12TruncatedSeq.exit4: ; preds = %_ZNK21G1AdaptiveIHOPControl7predictEPK12TruncatedSeq.exit, %72
  %80 = phi i32 [ %.pre, %72 ], [ %70, %_ZNK21G1AdaptiveIHOPControl7predictEPK12TruncatedSeq.exit ]
  %.0.i.i.i.i3 = phi double [ %79, %72 ], [ %68, %_ZNK21G1AdaptiveIHOPControl7predictEPK12TruncatedSeq.exit ]
  %81 = tail call noundef double @llvm.fmuladd.f64(double %51, double %.0.i.i.i.i, double %50)
  %82 = fcmp ogt double %81, 0.000000e+00
  %83 = select i1 %82, double %81, double 0.000000e+00
  %84 = add i64 %32, %30
  %85 = uitofp i64 %84 to double
  %86 = fcmp olt double %85, 1.000000e+02
  %87 = select i1 %86, double %85, double 1.000000e+02
  %88 = insertelement <2 x i64> poison, i64 %37, i64 0
  %89 = insertelement <2 x i64> %88, i64 %38, i64 1
  %90 = uitofp <2 x i64> %89 to <2 x double>
  %91 = uitofp i64 %39 to double
  %92 = insertelement <2 x double> poison, double %87, i64 0
  %93 = insertelement <2 x double> %92, double %91, i64 1
  %94 = fsub <2 x double> <double 1.000000e+02, double 1.000000e+02>, %93
  %95 = fmul <2 x double> %94, %90
  %96 = fdiv <2 x double> %95, <double 1.000000e+02, double 1.000000e+02>
  %97 = extractelement <2 x double> %96, i64 0
  %98 = extractelement <2 x double> %96, i64 1
  %99 = fcmp olt double %97, %98
  %100 = select i1 %99, double %97, double %98
  %101 = fptoui double %100 to i64
  %102 = tail call noundef double @llvm.fmuladd.f64(double %67, double %.0.i.i.i.i3, double %66)
  %103 = fcmp ogt double %102, 0.000000e+00
  %104 = select i1 %103, double %102, double 0.000000e+00
  %105 = sext i32 %80 to i64
  %106 = load i64, ptr @G1AdaptiveIHOPNumInitialSamples, align 8
  %.not.i5 = icmp ule i64 %106, %105
  %107 = load i32, ptr %53, align 8
  %108 = sext i32 %107 to i64
  %109 = icmp ule i64 %106, %108
  %110 = select i1 %.not.i5, i1 %109, i1 false
  tail call void @_ZN11G1NewTracer31report_adaptive_ihop_statisticsEmmmmddb(ptr noundef nonnull align 8 dereferenceable(88) %1, i64 noundef %25, i64 noundef %101, i64 noundef %44, i64 noundef %46, double noundef %83, double noundef %104, i1 noundef zeroext %110) #14
  ret void
}